target datalayout = "e-m:e-p270:32:32-p271:32:32-p272:64:64-i64:64-i128:128-f80:128-n8:16:32:64-S128"
target triple = "x86_64-pc-linux-gnu"

%struct.AVCodecContext = type { ptr, i32, i32, ptr, i32, i32, ptr, ptr, ptr, i64, i32, i32, ptr, i32, %struct.AVRational, %struct.AVRational, %struct.AVRational, i32, i32, i32, i32, i32, %struct.AVRational, i32, i32, i32, i32, i32, i32, i32, i32, i32, i32, i32, ptr, ptr, i32, float, float, float, float, float, float, float, float, float, i32, i32, i32, i32, i32, i32, i32, i32, i32, i32, i32, i32, ptr, ptr, ptr, i32, i32, i32, i32, i32, i32, i32, i32, i32, i32, %struct.AVChannelLayout, i32, i32, i32, i32, i32, i32, i32, i32, ptr, i32, i32, i32, float, float, i32, i32, i32, i32, i32, ptr, i64, i64, float, float, i32, i32, ptr, ptr, i32, i32, i32, i32, i32, ptr, ptr, ptr, ptr, i32, i32, [8 x i64], i32, i32, i32, i32, i32, i32, i32, ptr, ptr, i32, i32, i32, i32, i32, i32, i32, i32, i32, i32, ptr, ptr, i32, i32, ptr, ptr, ptr, ptr, i32, i32, i64, i32, i32, i64, ptr, i64, ptr, i32, ptr, i32 }
%struct.AVRational = type { i32, i32 }
%struct.AVChannelLayout = type { i32, i32, %union.anon.0, ptr }
%union.anon.0 = type { i64 }
%struct.SHQContext = type { %struct.BlockDSPContext, %struct.IDCTDSPContext, [64 x i8], [64 x i32], i32, i32, ptr, i32 }
%struct.BlockDSPContext = type { ptr, ptr, [2 x ptr] }
%struct.IDCTDSPContext = type { ptr, ptr, ptr, ptr, ptr, ptr, [64 x i8], i32, i32 }

@speedhq_decode_init.init_once = internal global i32 0, align 4
@ff_zigzag_direct = external constant [64 x i8], align 16
@.str.2 = private unnamed_addr constant [47 x i8] c"Unknown NewTek SpeedHQ FOURCC provided (%08X)\0A\00", align 1

; Function Attrs: cold nounwind optsize uwtable
define internal i32 @speedhq_decode_init(ptr noundef %0) #0 {
  %2 = alloca i32, align 4
  %3 = alloca ptr, align 8
  %4 = alloca i32, align 4
  %5 = alloca ptr, align 8
  %6 = alloca i32, align 4
  store ptr %0, ptr %3, align 8, !tbaa !4
  call void @llvm.lifetime.start.p0(i64 4, ptr %4) #10
  call void @llvm.lifetime.start.p0(i64 8, ptr %5) #10
  %7 = load ptr, ptr %3, align 8, !tbaa !4
  %8 = getelementptr inbounds nuw %struct.AVCodecContext, ptr %7, i32 0, i32 6
  %9 = load ptr, ptr %8, align 8, !tbaa !9
  store ptr %9, ptr %5, align 8, !tbaa !29
  %10 = call i32 @pthread_once(ptr noundef @speedhq_decode_init.init_once, ptr noundef @speedhq_static_init)
  store i32 %10, ptr %4, align 4, !tbaa !31
  %11 = load i32, ptr %4, align 4, !tbaa !31
  %12 = icmp ne i32 %11, 0
  br i1 %12, label %13, label %14

13:                                               ; preds = %1
  store i32 -1313558101, ptr %2, align 4
  store i32 1, ptr %6, align 4
  br label %96

14:                                               ; preds = %1
  %15 = load ptr, ptr %5, align 8, !tbaa !29
  %16 = getelementptr inbounds nuw %struct.SHQContext, ptr %15, i32 0, i32 0
  call void @ff_blockdsp_init(ptr noundef %16)
  %17 = load ptr, ptr %5, align 8, !tbaa !29
  %18 = getelementptr inbounds nuw %struct.SHQContext, ptr %17, i32 0, i32 1
  %19 = load ptr, ptr %3, align 8, !tbaa !4
  call void @ff_idctdsp_init(ptr noundef %18, ptr noundef %19)
  %20 = load ptr, ptr %5, align 8, !tbaa !29
  %21 = getelementptr inbounds nuw %struct.SHQContext, ptr %20, i32 0, i32 2
  %22 = getelementptr inbounds [64 x i8], ptr %21, i64 0, i64 0
  %23 = load ptr, ptr %5, align 8, !tbaa !29
  %24 = getelementptr inbounds nuw %struct.SHQContext, ptr %23, i32 0, i32 1
  %25 = getelementptr inbounds nuw %struct.IDCTDSPContext, ptr %24, i32 0, i32 6
  %26 = getelementptr inbounds [64 x i8], ptr %25, i64 0, i64 0
  call void @ff_permute_scantable(ptr noundef %22, ptr noundef @ff_zigzag_direct, ptr noundef %26)
  %27 = load ptr, ptr %3, align 8, !tbaa !4
  %28 = getelementptr inbounds nuw %struct.AVCodecContext, ptr %27, i32 0, i32 5
  %29 = load i32, ptr %28, align 4, !tbaa !32
  switch i32 %29, label %86 [
    i32 810633299, label %30
    i32 827410515, label %37
    i32 844187731, label %44
    i32 860964947, label %51
    i32 877742163, label %58
    i32 894519379, label %65
    i32 928073811, label %72
    i32 961628243, label %79
  ]

30:                                               ; preds = %14
  %31 = load ptr, ptr %5, align 8, !tbaa !29
  %32 = getelementptr inbounds nuw %struct.SHQContext, ptr %31, i32 0, i32 4
  store i32 0, ptr %32, align 8, !tbaa !33
  %33 = load ptr, ptr %5, align 8, !tbaa !29
  %34 = getelementptr inbounds nuw %struct.SHQContext, ptr %33, i32 0, i32 5
  store i32 0, ptr %34, align 4, !tbaa !38
  %35 = load ptr, ptr %3, align 8, !tbaa !4
  %36 = getelementptr inbounds nuw %struct.AVCodecContext, ptr %35, i32 0, i32 23
  store i32 0, ptr %36, align 8, !tbaa !39
  br label %91

37:                                               ; preds = %14
  %38 = load ptr, ptr %5, align 8, !tbaa !29
  %39 = getelementptr inbounds nuw %struct.SHQContext, ptr %38, i32 0, i32 4
  store i32 0, ptr %39, align 8, !tbaa !33
  %40 = load ptr, ptr %5, align 8, !tbaa !29
  %41 = getelementptr inbounds nuw %struct.SHQContext, ptr %40, i32 0, i32 5
  store i32 1, ptr %41, align 4, !tbaa !38
  %42 = load ptr, ptr %3, align 8, !tbaa !4
  %43 = getelementptr inbounds nuw %struct.AVCodecContext, ptr %42, i32 0, i32 23
  store i32 33, ptr %43, align 8, !tbaa !39
  br label %91

44:                                               ; preds = %14
  %45 = load ptr, ptr %5, align 8, !tbaa !29
  %46 = getelementptr inbounds nuw %struct.SHQContext, ptr %45, i32 0, i32 4
  store i32 1, ptr %46, align 8, !tbaa !33
  %47 = load ptr, ptr %5, align 8, !tbaa !29
  %48 = getelementptr inbounds nuw %struct.SHQContext, ptr %47, i32 0, i32 5
  store i32 0, ptr %48, align 4, !tbaa !38
  %49 = load ptr, ptr %3, align 8, !tbaa !4
  %50 = getelementptr inbounds nuw %struct.AVCodecContext, ptr %49, i32 0, i32 23
  store i32 4, ptr %50, align 8, !tbaa !39
  br label %91

51:                                               ; preds = %14
  %52 = load ptr, ptr %5, align 8, !tbaa !29
  %53 = getelementptr inbounds nuw %struct.SHQContext, ptr %52, i32 0, i32 4
  store i32 1, ptr %53, align 8, !tbaa !33
  %54 = load ptr, ptr %5, align 8, !tbaa !29
  %55 = getelementptr inbounds nuw %struct.SHQContext, ptr %54, i32 0, i32 5
  store i32 1, ptr %55, align 4, !tbaa !38
  %56 = load ptr, ptr %3, align 8, !tbaa !4
  %57 = getelementptr inbounds nuw %struct.AVCodecContext, ptr %56, i32 0, i32 23
  store i32 78, ptr %57, align 8, !tbaa !39
  br label %91

58:                                               ; preds = %14
  %59 = load ptr, ptr %5, align 8, !tbaa !29
  %60 = getelementptr inbounds nuw %struct.SHQContext, ptr %59, i32 0, i32 4
  store i32 2, ptr %60, align 8, !tbaa !33
  %61 = load ptr, ptr %5, align 8, !tbaa !29
  %62 = getelementptr inbounds nuw %struct.SHQContext, ptr %61, i32 0, i32 5
  store i32 0, ptr %62, align 4, !tbaa !38
  %63 = load ptr, ptr %3, align 8, !tbaa !4
  %64 = getelementptr inbounds nuw %struct.AVCodecContext, ptr %63, i32 0, i32 23
  store i32 5, ptr %64, align 8, !tbaa !39
  br label %91

65:                                               ; preds = %14
  %66 = load ptr, ptr %5, align 8, !tbaa !29
  %67 = getelementptr inbounds nuw %struct.SHQContext, ptr %66, i32 0, i32 4
  store i32 2, ptr %67, align 8, !tbaa !33
  %68 = load ptr, ptr %5, align 8, !tbaa !29
  %69 = getelementptr inbounds nuw %struct.SHQContext, ptr %68, i32 0, i32 5
  store i32 1, ptr %69, align 4, !tbaa !38
  %70 = load ptr, ptr %3, align 8, !tbaa !4
  %71 = getelementptr inbounds nuw %struct.AVCodecContext, ptr %70, i32 0, i32 23
  store i32 79, ptr %71, align 8, !tbaa !39
  br label %91

72:                                               ; preds = %14
  %73 = load ptr, ptr %5, align 8, !tbaa !29
  %74 = getelementptr inbounds nuw %struct.SHQContext, ptr %73, i32 0, i32 4
  store i32 1, ptr %74, align 8, !tbaa !33
  %75 = load ptr, ptr %5, align 8, !tbaa !29
  %76 = getelementptr inbounds nuw %struct.SHQContext, ptr %75, i32 0, i32 5
  store i32 2, ptr %76, align 4, !tbaa !38
  %77 = load ptr, ptr %3, align 8, !tbaa !4
  %78 = getelementptr inbounds nuw %struct.AVCodecContext, ptr %77, i32 0, i32 23
  store i32 78, ptr %78, align 8, !tbaa !39
  br label %91

79:                                               ; preds = %14
  %80 = load ptr, ptr %5, align 8, !tbaa !29
  %81 = getelementptr inbounds nuw %struct.SHQContext, ptr %80, i32 0, i32 4
  store i32 2, ptr %81, align 8, !tbaa !33
  %82 = load ptr, ptr %5, align 8, !tbaa !29
  %83 = getelementptr inbounds nuw %struct.SHQContext, ptr %82, i32 0, i32 5
  store i32 2, ptr %83, align 4, !tbaa !38
  %84 = load ptr, ptr %3, align 8, !tbaa !4
  %85 = getelementptr inbounds nuw %struct.AVCodecContext, ptr %84, i32 0, i32 23
  store i32 79, ptr %85, align 8, !tbaa !39
  br label %91

86:                                               ; preds = %14
  %87 = load ptr, ptr %3, align 8, !tbaa !4
  %88 = load ptr, ptr %3, align 8, !tbaa !4
  %89 = getelementptr inbounds nuw %struct.AVCodecContext, ptr %88, i32 0, i32 5
  %90 = load i32, ptr %89, align 4, !tbaa !32
  call void (ptr, i32, ptr, ...) @av_log(ptr noundef %87, i32 noundef 16, ptr noundef @.str.2, i32 noundef %90)
  store i32 -1094995529, ptr %2, align 4
  store i32 1, ptr %6, align 4
  br label %96

91:                                               ; preds = %79, %72, %65, %58, %51, %44, %37, %30
  %92 = load ptr, ptr %3, align 8, !tbaa !4
  %93 = getelementptr inbounds nuw %struct.AVCodecContext, ptr %92, i32 0, i32 27
  store i32 5, ptr %93, align 8, !tbaa !40
  %94 = load ptr, ptr %3, align 8, !tbaa !4
  %95 = getelementptr inbounds nuw %struct.AVCodecContext, ptr %94, i32 0, i32 29
  store i32 2, ptr %95, align 8, !tbaa !41
  store i32 0, ptr %2, align 4
  store i32 1, ptr %6, align 4
  br label %96

96:                                               ; preds = %91, %86, %13
  call void @llvm.lifetime.end.p0(i64 8, ptr %5) #10
  call void @llvm.lifetime.end.p0(i64 4, ptr %4) #10
  %97 = load i32, ptr %2, align 4
  ret i32 %97
}