; Function Attrs: cold nounwind optsize uwtable
define internal range(i32 -1313558101, 1) i32 @speedhq_decode_init(ptr noundef %0) #0 {
  %2 = getelementptr inbounds nuw i8, ptr %0, i64 32
  %3 = load ptr, ptr %2, align 8, !tbaa !4
  %4 = tail call i32 @pthread_once(ptr noundef nonnull @speedhq_decode_init.init_once, ptr noundef nonnull @speedhq_static_init) #9
  %.not = icmp eq i32 %4, 0
  br i1 %.not, label %5, label %23

5:                                                ; preds = %1
  tail call void @ff_blockdsp_init(ptr noundef %3) #9
  %6 = getelementptr inbounds nuw i8, ptr %3, i64 32
  tail call void @ff_idctdsp_init(ptr noundef nonnull %6, ptr noundef nonnull %0) #9
  %7 = getelementptr inbounds nuw i8, ptr %3, i64 152
  %8 = getelementptr inbounds nuw i8, ptr %3, i64 80
  tail call void @ff_permute_scantable(ptr noundef nonnull %7, ptr noundef nonnull @ff_zigzag_direct, ptr noundef nonnull %8) #9
  %9 = getelementptr inbounds nuw i8, ptr %0, i64 28
  %10 = load i32, ptr %9, align 4, !tbaa !27
  %11 = add i32 %10, -810633299
  %12 = tail call i32 @llvm.fshl.i32(i32 %11, i32 %11, i32 8)
  %13 = icmp ult i32 %12, 10
  %switch.maskindex = trunc i32 %12 to i16
  %switch.shifted = lshr i16 703, %switch.maskindex
  %switch.lobit = trunc i16 %switch.shifted to i1
  %or.cond = select i1 %13, i1 %switch.lobit, i1 false
  br i1 %or.cond, label %switch.lookup, label %14

14:                                               ; preds = %5
  tail call void (ptr, i32, ptr, ...) @av_log(ptr noundef nonnull %0, i32 noundef 16, ptr noundef nonnull @.str.2, i32 noundef %10) #9
  br label %23

switch.lookup:                                    ; preds = %5
  %15 = zext nneg i32 %12 to i64
  %switch.gep = getelementptr inbounds nuw [10 x i32], ptr @switch.table.speedhq_decode_init, i64 0, i64 %15
  %switch.load = load i32, ptr %switch.gep, align 4
  %16 = zext nneg i32 %12 to i64
  %switch.gep41 = getelementptr inbounds nuw [10 x i32], ptr @switch.table.speedhq_decode_init.2, i64 0, i64 %16
  %switch.load42 = load i32, ptr %switch.gep41, align 4
  %17 = zext nneg i32 %12 to i64
  %switch.gep43 = getelementptr inbounds nuw [10 x i32], ptr @switch.table.speedhq_decode_init.3, i64 0, i64 %17
  %switch.load44 = load i32, ptr %switch.gep43, align 4
  %18 = getelementptr inbounds nuw i8, ptr %3, i64 472
  store i32 %switch.load, ptr %18, align 8, !tbaa !28
  %19 = getelementptr inbounds nuw i8, ptr %3, i64 476
  store i32 %switch.load42, ptr %19, align 4, !tbaa !33
  %20 = getelementptr inbounds nuw i8, ptr %0, i64 136
  store i32 %switch.load44, ptr %20, align 8, !tbaa !34
  %21 = getelementptr inbounds nuw i8, ptr %0, i64 152
  store i32 5, ptr %21, align 8, !tbaa !35
  %22 = getelementptr inbounds nuw i8, ptr %0, i64 160
  store i32 2, ptr %22, align 8, !tbaa !36
  br label %23

23:                                               ; preds = %1, %switch.lookup, %14
  %.0 = phi i32 [ -1094995529, %14 ], [ 0, %switch.lookup ], [ -1313558101, %1 ]
  ret i32 %.0
}